; Function Attrs: nounwind uwtable
define internal noundef i32 @lj_cf_ffi_copy(ptr noundef %0) #0 {
  %2 = alloca i32, align 4
  %3 = alloca ptr, align 8
  %4 = alloca ptr, align 8
  %5 = getelementptr inbounds nuw i8, ptr %0, i64 16
  %6 = load i64, ptr %5, align 8, !tbaa !24
  %7 = inttoptr i64 %6 to ptr
  %8 = getelementptr inbounds nuw i8, ptr %7, i64 384
  %9 = load i64, ptr %8, align 8, !tbaa !41
  %10 = inttoptr i64 %9 to ptr
  %11 = getelementptr inbounds nuw i8, ptr %10, i64 16
  store ptr %0, ptr %11, align 8, !tbaa !42
  %12 = getelementptr inbounds nuw i8, ptr %0, i64 32
  %13 = load ptr, ptr %12, align 8, !tbaa !44
  call void @llvm.lifetime.start.p0(i64 8, ptr nonnull %4) #9
  %14 = getelementptr inbounds nuw i8, ptr %0, i64 40
  %15 = load ptr, ptr %14, align 8, !tbaa !4
  %.not.i = icmp ult ptr %13, %15
  br i1 %.not.i, label %ffi_checkptr.exit, label %16

16:                                               ; preds = %1
  tail call void @lj_err_arg(ptr noundef nonnull %0, i32 noundef 1, i32 noundef 551) #10
  unreachable

ffi_checkptr.exit:                                ; preds = %1
  %17 = load ptr, ptr %10, align 8, !tbaa !51
  %18 = getelementptr inbounds nuw i8, ptr %17, i64 408
  call void @lj_cconv_ct_tv(ptr noundef nonnull %10, ptr noundef nonnull %18, ptr noundef nonnull %4, ptr noundef nonnull %13, i32 noundef 256) #9
  %19 = load ptr, ptr %4, align 8, !tbaa !56
  call void @llvm.lifetime.end.p0(i64 8, ptr nonnull %4) #9
  %20 = load i64, ptr %5, align 8, !tbaa !24
  %21 = inttoptr i64 %20 to ptr
  %22 = getelementptr inbounds nuw i8, ptr %21, i64 384
  %23 = load i64, ptr %22, align 8, !tbaa !41
  %24 = inttoptr i64 %23 to ptr
  %25 = getelementptr inbounds nuw i8, ptr %24, i64 16
  store ptr %0, ptr %25, align 8, !tbaa !42
  %26 = load ptr, ptr %12, align 8, !tbaa !44
  %27 = getelementptr inbounds nuw i8, ptr %26, i64 8
  call void @llvm.lifetime.start.p0(i64 8, ptr nonnull %3) #9
  %28 = load ptr, ptr %14, align 8, !tbaa !4
  %.not.i10 = icmp ult ptr %27, %28
  br i1 %.not.i10, label %ffi_checkptr.exit11, label %29

29:                                               ; preds = %ffi_checkptr.exit
  call void @lj_err_arg(ptr noundef nonnull %0, i32 noundef 2, i32 noundef 551) #10
  unreachable

ffi_checkptr.exit11:                              ; preds = %ffi_checkptr.exit
  %30 = load ptr, ptr %24, align 8, !tbaa !51
  %31 = getelementptr inbounds nuw i8, ptr %30, i64 432
  call void @lj_cconv_ct_tv(ptr noundef nonnull %24, ptr noundef nonnull %31, ptr noundef nonnull %3, ptr noundef nonnull %27, i32 noundef 512) #9
  %32 = load ptr, ptr %3, align 8, !tbaa !56
  call void @llvm.lifetime.end.p0(i64 8, ptr nonnull %3) #9
  %33 = load ptr, ptr %12, align 8, !tbaa !44
  %34 = getelementptr inbounds nuw i8, ptr %33, i64 8
  %35 = load i64, ptr %34, align 8, !tbaa !23
  %.mask = and i64 %35, -140737488355328
  %36 = icmp ne i64 %.mask, -703687441776640
  %.pre = load ptr, ptr %14, align 8, !tbaa !4
  %37 = getelementptr inbounds nuw i8, ptr %33, i64 16
  %.not = icmp ult ptr %37, %.pre
  %or.cond = select i1 %36, i1 true, i1 %.not
  br i1 %or.cond, label %44, label %38

38:                                               ; preds = %ffi_checkptr.exit11
  %39 = and i64 %35, 140737488355327
  %40 = inttoptr i64 %39 to ptr
  %41 = getelementptr inbounds nuw i8, ptr %40, i64 20
  %42 = load i32, ptr %41, align 4, !tbaa !23
  %43 = add i32 %42, 1
  br label %56

44:                                               ; preds = %ffi_checkptr.exit11
  %45 = load i64, ptr %5, align 8, !tbaa !24
  %46 = inttoptr i64 %45 to ptr
  %47 = getelementptr inbounds nuw i8, ptr %46, i64 384
  %48 = load i64, ptr %47, align 8, !tbaa !41
  %49 = inttoptr i64 %48 to ptr
  %50 = getelementptr inbounds nuw i8, ptr %49, i64 16
  store ptr %0, ptr %50, align 8, !tbaa !42
  %51 = getelementptr inbounds nuw i8, ptr %33, i64 16
  call void @llvm.lifetime.start.p0(i64 4, ptr nonnull %2) #9
  %.not.i12 = icmp ult ptr %51, %.pre
  br i1 %.not.i12, label %ffi_checkint.exit, label %52

52:                                               ; preds = %44
  call void @lj_err_arg(ptr noundef nonnull %0, i32 noundef 3, i32 noundef 551) #10
  unreachable

ffi_checkint.exit:                                ; preds = %44
  %53 = load ptr, ptr %49, align 8, !tbaa !51
  %54 = getelementptr inbounds nuw i8, ptr %53, i64 216
  call void @lj_cconv_ct_tv(ptr noundef nonnull %49, ptr noundef nonnull %54, ptr noundef nonnull %2, ptr noundef nonnull %51, i32 noundef 768) #9
  %55 = load i32, ptr %2, align 4, !tbaa !43
  call void @llvm.lifetime.end.p0(i64 4, ptr nonnull %2) #9
  br label %56

56:                                               ; preds = %ffi_checkint.exit, %38
  %.0 = phi i32 [ %43, %38 ], [ %55, %ffi_checkint.exit ]
  %57 = zext i32 %.0 to i64
  call void @llvm.memcpy.p0.p0.i64(ptr align 1 %19, ptr align 1 %32, i64 %57, i1 false)
  ret i32 0
}